target datalayout = "e-m:e-p270:32:32-p271:32:32-p272:64:64-i64:64-i128:128-f80:128-n8:16:32:64-S128"
target triple = "x86_64-pc-linux-gnu"

; Function Attrs: mustprogress nounwind uwtable
define dso_local void @_ZN3igl7tinyply7PlyFile11PlyFileImpl21write_property_binaryERSoPhRmRKm(ptr noundef nonnull align 8 dereferenceable(200) %0, ptr noundef nonnull align 8 dereferenceable(8) %1, ptr noundef %2, ptr noundef nonnull align 8 dereferenceable(8) %3, ptr noundef nonnull align 8 dereferenceable(8) %4) #4 align 2 personality ptr @__gxx_personality_v0 {
  %6 = alloca ptr, align 8
  %7 = alloca ptr, align 8
  %8 = alloca ptr, align 8
  %9 = alloca ptr, align 8
  %10 = alloca ptr, align 8
  store ptr %0, ptr %6, align 8, !tbaa !86
  store ptr %1, ptr %7, align 8, !tbaa !167
  store ptr %2, ptr %8, align 8, !tbaa !18
  store ptr %3, ptr %9, align 8, !tbaa !48
  store ptr %4, ptr %10, align 8, !tbaa !48
  %11 = load ptr, ptr %7, align 8, !tbaa !167
  %12 = load ptr, ptr %8, align 8, !tbaa !18
  %13 = load ptr, ptr %10, align 8, !tbaa !48
  %14 = load i64, ptr %13, align 8, !tbaa !50
  %15 = invoke noundef nonnull align 8 dereferenceable(8) ptr @_ZNSo5writeEPKcl(ptr noundef nonnull align 8 dereferenceable(8) %11, ptr noundef %12, i64 noundef %14)
          to label %16 unwind label %22

16:                                               ; preds = %5
  %17 = load ptr, ptr %10, align 8, !tbaa !48
  %18 = load i64, ptr %17, align 8, !tbaa !50
  %19 = load ptr, ptr %9, align 8, !tbaa !48
  %20 = load i64, ptr %19, align 8, !tbaa !50
  %21 = add i64 %20, %18
  store i64 %21, ptr %19, align 8, !tbaa !50
  ret void

22:                                               ; preds = %5
  %23 = landingpad { ptr, i32 }
          catch ptr null
  %24 = extractvalue { ptr, i32 } %23, 0
  call void @__clang_call_terminate(ptr %24) #23
  unreachable
}