; Function Attrs: mustprogress nounwind uwtable
define dso_local void @_ZN3igl7tinyply7PlyFile11PlyFileImpl21write_property_binaryERSoPhRmRKm(ptr noundef nonnull readnone align 8 captures(none) dereferenceable(200) %0, ptr noundef nonnull align 8 dereferenceable(8) %1, ptr noundef %2, ptr noundef nonnull align 8 captures(none) dereferenceable(8) %3, ptr noundef nonnull readonly align 8 captures(none) dereferenceable(8) %4) local_unnamed_addr #2 align 2 personality ptr @__gxx_personality_v0 {
  %6 = load i64, ptr %4, align 8, !tbaa !27
  %7 = invoke noundef nonnull align 8 dereferenceable(8) ptr @_ZNSo5writeEPKcl(ptr noundef nonnull align 8 dereferenceable(8) %1, ptr noundef %2, i64 noundef %6)
          to label %8 unwind label %12

8:                                                ; preds = %5
  %9 = load i64, ptr %4, align 8, !tbaa !27
  %10 = load i64, ptr %3, align 8, !tbaa !27
  %11 = add i64 %10, %9
  store i64 %11, ptr %3, align 8, !tbaa !27
  ret void

12:                                               ; preds = %5
  %13 = landingpad { ptr, i32 }
          catch ptr null
  %14 = extractvalue { ptr, i32 } %13, 0
  tail call void @__clang_call_terminate(ptr %14) #31
  unreachable
}